Certificate:
    Data:
        Version: 3 (0x2)
        Serial Number: 2 (0x2)
    Signature Algorithm: sha256WithRSAEncryption
        Issuer: C=US, ST=CA, L=SanFrancisco, O=Fort-Funston, OU=MyOrganizationalUnit, CN=Fort-Funston CA/name=EasyRSA/emailAddress=me@myhost.mydomain
        Validity
            Not Before: Oct  5 18:34:56 2018 GMT
            Not After : Oct  2 18:34:56 2028 GMT
        Subject: C=US, ST=CA, L=SanFrancisco, O=Fort-Funston, OU=MyOrganizationalUnit, CN=openvpn-client/name=EasyRSA/emailAddress=me@myhost.mydomain
        Subject Public Key Info:
            Public Key Algorithm: rsaEncryption
                Public-Key: (2048 bit)
                Modulus:
                    00:b6:90:03:64:2d:ad:d2:b1:1a:e4:de:4e:09:af:
                    15:bb:04:28:1e:27:c9:6f:01:82:21:ae:ff:9e:3e:
                    89:ee:4a:c1:89:d5:82:18:b5:bc:dd:43:a0:67:00:
                    c4:f5:a4:37:9f:f3:3c:14:34:52:67:22:77:8b:41:
                    66:57:f5:8c:5f:3e:4b:3a:e8:47:fa:9a:e0:7d:15:
                    97:fe:c3:b1:88:93:a0:e2:59:29:d6:c0:8d:bb:db:
                    c7:dd:2c:0d:f9:72:6e:39:11:5b:e2:47:1b:97:d7:
                    3f:d3:66:a3:9d:d4:82:22:b6:28:b1:8f:fe:36:6d:
                    8c:07:f7:5e:6b:3a:84:5f:c9:8a:b4:e0:bc:3e:fb:
                    7f:b7:bb:e9:ae:70:43:be:44:86:34:57:80:d9:40:
                    b0:fb:1a:9b:07:78:d7:c7:3f:b0:21:5c:3c:ab:51:
                    8a:c3:3e:d9:54:e3:ac:09:a1:14:0f:59:98:b6:61:
                    af:42:01:c2:b1:cd:52:06:ce:94:a4:20:5a:be:a1:
                    03:2b:23:40:9d:e7:16:60:dd:2b:6e:aa:dc:b9:df:
                    41:b7:12:b7:36:41:00:ae:58:cb:31:0b:2e:91:05:
                    33:07:92:07:76:74:b2:79:57:cf:19:10:c0:81:cd:
                    29:b9:90:a1:ce:4d:2e:7b:ce:2d:ac:be:13:8a:a1:
                    a7:51
                Exponent: 65537 (0x10001)
        X509v3 extensions:
            X509v3 Basic Constraints: 
                CA:FALSE
            Netscape Comment: 
                Easy-RSA Generated Certificate
            X509v3 Subject Key Identifier: 
                A8:56:F8:61:76:4C:48:5F:C0:90:66:6F:F4:B4:81:51:F4:80:C8:43
            X509v3 Authority Key Identifier: 
                keyid:D5:05:76:8D:9A:9C:C0:BA:3E:E6:FA:37:6B:F1:D1:3D:0C:58:50:72
                DirName:/C=US/ST=CA/L=SanFrancisco/O=Fort-Funston/OU=MyOrganizationalUnit/CN=Fort-Funston CA/name=EasyRSA/emailAddress=me@myhost.mydomain
                serial:FC:9B:30:1B:16:78:B3:C9

            X509v3 Extended Key Usage: 
                TLS Web Client Authentication
            X509v3 Key Usage: 
                Digital Signature
            X509v3 Subject Alternative Name: 
                DNS:openvpn-client
    Signature Algorithm: sha256WithRSAEncryption
         2c:34:3c:bb:40:c5:75:32:f3:ea:8b:48:34:66:eb:01:60:5b:
         35:9b:3f:05:c4:b0:06:be:ec:fc:76:b6:b7:2f:37:b3:ec:ee:
         58:5f:bb:ca:e4:b1:4e:4e:04:9a:5c:f8:b5:03:60:b6:a2:2a:
         72:ca:15:5e:ab:68:3a:37:55:71:e5:58:08:fc:63:8c:54:c6:
         ef:50:ea:75:b4:e6:d3:c2:39:a1:2c:92:89:fb:65:84:3e:c9:
         b0:9d:47:d8:dc:6f:a7:44:78:4a:70:22:2c:e9:3d:c9:ee:78:
         05:46:09:7e:6e:d3:58:14:6d:1c:94:06:ed:d6:be:c5:f1:19:
         98:2b:83:f9:a8:be:6d:5d:f4:3c:39:ed:c3:ad:93:9b:cf:6c:
         05:df:c7:6b:e8:0d:46:d6:7b:02:3f:94:b1:19:f7:dc:b5:4c:
         53:90:26:f9:c0:14:11:fb:a0:93:34:65:5b:ac:71:24:3c:59:
         56:c8:4d:69:b7:14:65:57:f4:a3:fd:e7:30:c0:22:22:44:79:
         84:de:cf:12:95:ec:f3:89:27:ad:e1:2f:e8:67:d2:c1:c4:bb:
         0a:99:14:b7:19:9b:9f:bc:82:a6:7f:47:94:25:62:d4:e5:4c:
         9f:25:ce:b9:a9:ff:71:43:2c:fc:4e:07:d9:da:29:58:50:ef:
         0f:60:66:dd
-----BEGIN CERTIFICATE-----
MIIFcjCCBFqgAwIBAgIBAjANBgkqhkiG9w0BAQsFADCBtjELMAkGA1UEBhMCVVMx
CzAJBgNVBAgTAkNBMRUwEwYDVQQHEwxTYW5GcmFuY2lzY28xFTATBgNVBAoTDEZv
cnQtRnVuc3RvbjEdMBsGA1UECxMUTXlPcmdhbml6YXRpb25hbFVuaXQxGDAWBgNV
BAMTD0ZvcnQtRnVuc3RvbiBDQTEQMA4GA1UEKRMHRWFzeVJTQTEhMB8GCSqGSIb3
DQEJARYSbWVAbXlob3N0Lm15ZG9tYWluMB4XDTE4MTAwNTE4MzQ1NloXDTI4MTAw
MjE4MzQ1NlowgbUxCzAJBgNVBAYTAlVTMQswCQYDVQQIEwJDQTEVMBMGA1UEBxMM
U2FuRnJhbmNpc2NvMRUwEwYDVQQKEwxGb3J0LUZ1bnN0b24xHTAbBgNVBAsTFE15
T3JnYW5pemF0aW9uYWxVbml0MRcwFQYDVQQDEw5vcGVudnBuLWNsaWVudDEQMA4G
A1UEKRMHRWFzeVJTQTEhMB8GCSqGSIb3DQEJARYSbWVAbXlob3N0Lm15ZG9tYWlu
MIIBIjANBgkqhkiG9w0BAQEFAAOCAQ8AMIIBCgKCAQEAtpADZC2t0rEa5N5OCa8V
uwQoHifJbwGCIa7/nj6J7krBidWCGLW83UOgZwDE9aQ3n/M8FDRSZyJ3i0FmV/WM
Xz5LOuhH+prgfRWX/sOxiJOg4lkp1sCNu9vH3SwN+XJuORFb4kcbl9c/02ajndSC
IrYosY/+Nm2MB/deazqEX8mKtOC8Pvt/t7vprnBDvkSGNFeA2UCw+xqbB3jXxz+w
IVw8q1GKwz7ZVOOsCaEUD1mYtmGvQgHCsc1SBs6UpCBavqEDKyNAnecWYN0rbqrc
ud9BtxK3NkEArljLMQsukQUzB5IHdnSyeVfPGRDAgc0puZChzk0ue84trL4TiqGn
UQIDAQABo4IBiDCCAYQwCQYDVR0TBAIwADAtBglghkgBhvhCAQ0EIBYeRWFzeS1S
U0EgR2VuZXJhdGVkIENlcnRpZmljYXRlMB0GA1UdDgQWBBSoVvhhdkxIX8CQZm/0
tIFR9IDIQzCB6wYDVR0jBIHjMIHggBTVBXaNmpzAuj7m+jdr8dE9DFhQcqGBvKSB
uTCBtjELMAkGA1UEBhMCVVMxCzAJBgNVBAgTAkNBMRUwEwYDVQQHEwxTYW5GcmFu
Y2lzY28xFTATBgNVBAoTDEZvcnQtRnVuc3RvbjEdMBsGA1UECxMUTXlPcmdhbml6
YXRpb25hbFVuaXQxGDAWBgNVBAMTD0ZvcnQtRnVuc3RvbiBDQTEQMA4GA1UEKRMH
RWFzeVJTQTEhMB8GCSqGSIb3DQEJARYSbWVAbXlob3N0Lm15ZG9tYWluggkA/Jsw
GxZ4s8kwEwYDVR0lBAwwCgYIKwYBBQUHAwIwCwYDVR0PBAQDAgeAMBkGA1UdEQQS
MBCCDm9wZW52cG4tY2xpZW50MA0GCSqGSIb3DQEBCwUAA4IBAQAsNDy7QMV1MvPq
i0g0ZusBYFs1mz8FxLAGvuz8dra3Lzez7O5YX7vK5LFOTgSaXPi1A2C2oipyyhVe
q2g6N1Vx5VgI/GOMVMbvUOp1tObTwjmhLJKJ+2WEPsmwnUfY3G+nRHhKcCIs6T3J
7ngFRgl+btNYFG0clAbt1r7F8RmYK4P5qL5tXfQ8Oe3DrZObz2wF38dr6A1G1nsC
P5SxGffctUxTkCb5wBQR+6CTNGVbrHEkPFlWyE1ptxRlV/Sj/ecwwCIiRHmE3s8S
lezziSet4S/oZ9LBxLsKmRS3GZufvIKmf0eUJWLU5UyfJc65qf9xQyz8TgfZ2ilY
UO8PYGbd
-----END CERTIFICATE-----
