Certificate:
    Data:
        Version: 3 (0x2)
        Serial Number: 1 (0x1)
    Signature Algorithm: sha256WithRSAEncryption
        Issuer: C=US, ST=CA, L=SanFrancisco, O=Fort-Funston, OU=MyOrganizationalUnit, CN=Fort-Funston CA/name=EasyRSA/emailAddress=me@myhost.mydomain
        Validity
            Not Before: Oct  5 18:31:13 2018 GMT
            Not After : Oct  2 18:31:13 2028 GMT
        Subject: C=US, ST=CA, L=SanFrancisco, O=Fort-Funston, OU=MyOrganizationalUnit, CN=server/name=EasyRSA/emailAddress=me@myhost.mydomain
        Subject Public Key Info:
            Public Key Algorithm: rsaEncryption
                Public-Key: (2048 bit)
                Modulus:
                    00:d5:7a:93:e2:fa:52:3c:80:b4:d1:34:40:3a:b4:
                    a3:9f:58:84:c7:bd:56:b2:a6:73:b2:ef:01:3a:b9:
                    eb:25:3a:53:cd:08:10:32:ac:29:4f:73:78:05:f9:
                    aa:ab:4d:75:69:be:d5:a8:72:da:61:67:08:63:56:
                    f4:30:bd:9b:3f:92:14:93:84:e8:b3:b0:cc:ea:c9:
                    a3:f7:50:24:fa:43:b7:48:a6:a3:ea:4d:0d:7d:4e:
                    28:43:fb:34:27:0f:b6:92:6f:7b:a6:64:a6:1f:c9:
                    71:d7:91:49:8d:c1:36:e7:f6:af:e6:bb:e5:99:7b:
                    5c:34:52:d0:5a:a1:00:75:7a:76:81:2b:ec:3e:04:
                    c2:61:a4:d9:0c:51:bb:de:11:5d:a1:34:55:d6:29:
                    4d:2d:11:6f:bb:42:02:8c:66:74:7a:e1:7a:ed:36:
                    c9:d1:c2:ab:73:23:9a:19:f9:c3:d0:82:ec:c9:a0:
                    de:6f:f5:e4:21:e4:3c:f2:ba:21:4f:c0:46:a1:1f:
                    1c:66:53:66:fb:70:b0:d4:dd:0d:e8:10:f5:00:fd:
                    78:14:d0:88:64:0e:15:ca:96:d4:11:ff:cd:89:57:
                    c9:de:8e:b0:f6:cd:3b:fa:6d:1c:e4:f2:f2:59:26:
                    1c:ee:22:c6:e5:0a:f6:c6:27:be:d9:af:61:2f:99:
                    87:05
                Exponent: 65537 (0x10001)
        X509v3 extensions:
            X509v3 Basic Constraints: 
                CA:FALSE
            Netscape Cert Type: 
                SSL Server
            Netscape Comment: 
                Easy-RSA Generated Server Certificate
            X509v3 Subject Key Identifier: 
                61:FC:B5:55:84:7D:0B:F3:30:ED:F2:D6:78:9B:C7:0E:3B:DB:3C:5D
            X509v3 Authority Key Identifier: 
                keyid:D5:05:76:8D:9A:9C:C0:BA:3E:E6:FA:37:6B:F1:D1:3D:0C:58:50:72
                DirName:/C=US/ST=CA/L=SanFrancisco/O=Fort-Funston/OU=MyOrganizationalUnit/CN=Fort-Funston CA/name=EasyRSA/emailAddress=me@myhost.mydomain
                serial:FC:9B:30:1B:16:78:B3:C9

            X509v3 Extended Key Usage: 
                TLS Web Server Authentication
            X509v3 Key Usage: 
                Digital Signature, Key Encipherment
            X509v3 Subject Alternative Name: 
                DNS:server
    Signature Algorithm: sha256WithRSAEncryption
         0d:46:01:68:38:5c:f1:61:7f:94:69:50:66:b2:99:ca:14:5b:
         7b:58:fd:56:d3:b5:81:e4:d4:d9:ad:66:7b:1d:44:39:d2:5f:
         60:c4:46:69:3f:88:3e:85:8d:48:12:92:fb:4d:14:68:55:92:
         2d:ef:07:ed:8e:8f:d1:e8:7a:36:39:93:89:bd:d4:1f:8e:9d:
         6f:15:8f:e6:56:89:e1:48:48:b2:1f:eb:47:a1:80:b3:9d:c0:
         b2:85:16:b8:e7:30:70:f0:f5:f6:7f:d7:cf:4d:3a:07:e6:48:
         52:22:94:db:e2:ba:55:a6:a9:3a:50:a7:d1:7b:b1:a5:aa:2e:
         7e:ae:83:00:ae:1f:a2:3d:d5:f2:0b:f5:90:9f:b3:2e:39:b0:
         cb:d2:83:f5:87:44:54:23:9f:0d:ee:91:4a:8e:f1:94:a3:7a:
         e5:76:71:02:1b:33:49:2a:a2:30:66:1a:89:01:ed:e4:ee:dd:
         8e:39:c3:c8:4e:95:6c:79:86:0f:96:24:5a:e5:41:c2:87:13:
         05:8c:c4:db:4f:cf:c2:64:aa:28:2c:88:e5:cc:64:fb:1d:a5:
         13:e3:d3:93:83:06:f7:ea:1e:9d:36:68:48:72:75:56:52:22:
         14:1a:64:4e:df:c9:97:84:13:b8:de:72:9b:3b:6d:fa:8f:f5:
         55:70:26:21
-----BEGIN CERTIFICATE-----
MIIFfDCCBGSgAwIBAgIBATANBgkqhkiG9w0BAQsFADCBtjELMAkGA1UEBhMCVVMx
CzAJBgNVBAgTAkNBMRUwEwYDVQQHEwxTYW5GcmFuY2lzY28xFTATBgNVBAoTDEZv
cnQtRnVuc3RvbjEdMBsGA1UECxMUTXlPcmdhbml6YXRpb25hbFVuaXQxGDAWBgNV
BAMTD0ZvcnQtRnVuc3RvbiBDQTEQMA4GA1UEKRMHRWFzeVJTQTEhMB8GCSqGSIb3
DQEJARYSbWVAbXlob3N0Lm15ZG9tYWluMB4XDTE4MTAwNTE4MzExM1oXDTI4MTAw
MjE4MzExM1owga0xCzAJBgNVBAYTAlVTMQswCQYDVQQIEwJDQTEVMBMGA1UEBxMM
U2FuRnJhbmNpc2NvMRUwEwYDVQQKEwxGb3J0LUZ1bnN0b24xHTAbBgNVBAsTFE15
T3JnYW5pemF0aW9uYWxVbml0MQ8wDQYDVQQDEwZzZXJ2ZXIxEDAOBgNVBCkTB0Vh
c3lSU0ExITAfBgkqhkiG9w0BCQEWEm1lQG15aG9zdC5teWRvbWFpbjCCASIwDQYJ
KoZIhvcNAQEBBQADggEPADCCAQoCggEBANV6k+L6UjyAtNE0QDq0o59YhMe9VrKm
c7LvATq56yU6U80IEDKsKU9zeAX5qqtNdWm+1ahy2mFnCGNW9DC9mz+SFJOE6LOw
zOrJo/dQJPpDt0imo+pNDX1OKEP7NCcPtpJve6Zkph/JcdeRSY3BNuf2r+a75Zl7
XDRS0FqhAHV6doEr7D4EwmGk2QxRu94RXaE0VdYpTS0Rb7tCAoxmdHrheu02ydHC
q3Mjmhn5w9CC7Mmg3m/15CHkPPK6IU/ARqEfHGZTZvtwsNTdDegQ9QD9eBTQiGQO
FcqW1BH/zYlXyd6OsPbNO/ptHOTy8lkmHO4ixuUK9sYnvtmvYS+ZhwUCAwEAAaOC
AZowggGWMAkGA1UdEwQCMAAwEQYJYIZIAYb4QgEBBAQDAgZAMDQGCWCGSAGG+EIB
DQQnFiVFYXN5LVJTQSBHZW5lcmF0ZWQgU2VydmVyIENlcnRpZmljYXRlMB0GA1Ud
DgQWBBRh/LVVhH0L8zDt8tZ4m8cOO9s8XTCB6wYDVR0jBIHjMIHggBTVBXaNmpzA
uj7m+jdr8dE9DFhQcqGBvKSBuTCBtjELMAkGA1UEBhMCVVMxCzAJBgNVBAgTAkNB
MRUwEwYDVQQHEwxTYW5GcmFuY2lzY28xFTATBgNVBAoTDEZvcnQtRnVuc3RvbjEd
MBsGA1UECxMUTXlPcmdhbml6YXRpb25hbFVuaXQxGDAWBgNVBAMTD0ZvcnQtRnVu
c3RvbiBDQTEQMA4GA1UEKRMHRWFzeVJTQTEhMB8GCSqGSIb3DQEJARYSbWVAbXlo
b3N0Lm15ZG9tYWluggkA/JswGxZ4s8kwEwYDVR0lBAwwCgYIKwYBBQUHAwEwCwYD
VR0PBAQDAgWgMBEGA1UdEQQKMAiCBnNlcnZlcjANBgkqhkiG9w0BAQsFAAOCAQEA
DUYBaDhc8WF/lGlQZrKZyhRbe1j9VtO1geTU2a1mex1EOdJfYMRGaT+IPoWNSBKS
+00UaFWSLe8H7Y6P0eh6NjmTib3UH46dbxWP5laJ4UhIsh/rR6GAs53AsoUWuOcw
cPD19n/Xz006B+ZIUiKU2+K6VaapOlCn0Xuxpaoufq6DAK4foj3V8gv1kJ+zLjmw
y9KD9YdEVCOfDe6RSo7xlKN65XZxAhszSSqiMGYaiQHt5O7djjnDyE6VbHmGD5Yk
WuVBwocTBYzE20/PwmSqKCyI5cxk+x2lE+PTk4MG9+oenTZoSHJ1VlIiFBpkTt/J
l4QTuN5ymztt+o/1VXAmIQ==
-----END CERTIFICATE-----
